
06.MY_WASHING_MACHINE.elf:     file format elf32-avr

Sections:
Idx Name          Size      VMA       LMA       File off  Algn
  0 .data         0000001c  00800100  00000796  0000082a  2**0
                  CONTENTS, ALLOC, LOAD, DATA
  1 .text         00000796  00000000  00000000  00000094  2**1
                  CONTENTS, ALLOC, LOAD, READONLY, CODE
  2 .bss          0000001e  0080011c  0080011c  00000846  2**0
                  ALLOC
  3 .comment      00000030  00000000  00000000  00000846  2**0
                  CONTENTS, READONLY
  4 .note.gnu.avr.deviceinfo 00000040  00000000  00000000  00000878  2**2
                  CONTENTS, READONLY
  5 .debug_aranges 00000130  00000000  00000000  000008b8  2**0
                  CONTENTS, READONLY, DEBUGGING
  6 .debug_info   00001366  00000000  00000000  000009e8  2**0
                  CONTENTS, READONLY, DEBUGGING
  7 .debug_abbrev 00000c8c  00000000  00000000  00001d4e  2**0
                  CONTENTS, READONLY, DEBUGGING
  8 .debug_line   00000b5a  00000000  00000000  000029da  2**0
                  CONTENTS, READONLY, DEBUGGING
  9 .debug_frame  000001f4  00000000  00000000  00003534  2**2
                  CONTENTS, READONLY, DEBUGGING
 10 .debug_str    000006ea  00000000  00000000  00003728  2**0
                  CONTENTS, READONLY, DEBUGGING
 11 .debug_loc    000005f3  00000000  00000000  00003e12  2**0
                  CONTENTS, READONLY, DEBUGGING
 12 .debug_ranges 000000e0  00000000  00000000  00004405  2**0
                  CONTENTS, READONLY, DEBUGGING

Disassembly of section .text:

00000000 <__vectors>:
   0:	45 c0       	rjmp	.+138    	; 0x8c <__ctors_end>
   2:	00 00       	nop
   4:	60 c0       	rjmp	.+192    	; 0xc6 <__bad_interrupt>
   6:	00 00       	nop
   8:	5e c0       	rjmp	.+188    	; 0xc6 <__bad_interrupt>
   a:	00 00       	nop
   c:	5c c0       	rjmp	.+184    	; 0xc6 <__bad_interrupt>
   e:	00 00       	nop
  10:	5a c0       	rjmp	.+180    	; 0xc6 <__bad_interrupt>
  12:	00 00       	nop
  14:	58 c0       	rjmp	.+176    	; 0xc6 <__bad_interrupt>
  16:	00 00       	nop
  18:	56 c0       	rjmp	.+172    	; 0xc6 <__bad_interrupt>
  1a:	00 00       	nop
  1c:	54 c0       	rjmp	.+168    	; 0xc6 <__bad_interrupt>
  1e:	00 00       	nop
  20:	52 c0       	rjmp	.+164    	; 0xc6 <__bad_interrupt>
  22:	00 00       	nop
  24:	50 c0       	rjmp	.+160    	; 0xc6 <__bad_interrupt>
  26:	00 00       	nop
  28:	4e c0       	rjmp	.+156    	; 0xc6 <__bad_interrupt>
  2a:	00 00       	nop
  2c:	4c c0       	rjmp	.+152    	; 0xc6 <__bad_interrupt>
  2e:	00 00       	nop
  30:	4a c0       	rjmp	.+148    	; 0xc6 <__bad_interrupt>
  32:	00 00       	nop
  34:	48 c0       	rjmp	.+144    	; 0xc6 <__bad_interrupt>
  36:	00 00       	nop
  38:	46 c0       	rjmp	.+140    	; 0xc6 <__bad_interrupt>
  3a:	00 00       	nop
  3c:	44 c0       	rjmp	.+136    	; 0xc6 <__bad_interrupt>
  3e:	00 00       	nop
  40:	9f c1       	rjmp	.+830    	; 0x380 <__vector_16>
  42:	00 00       	nop
  44:	40 c0       	rjmp	.+128    	; 0xc6 <__bad_interrupt>
  46:	00 00       	nop
  48:	3e c0       	rjmp	.+124    	; 0xc6 <__bad_interrupt>
  4a:	00 00       	nop
  4c:	3c c0       	rjmp	.+120    	; 0xc6 <__bad_interrupt>
  4e:	00 00       	nop
  50:	3a c0       	rjmp	.+116    	; 0xc6 <__bad_interrupt>
  52:	00 00       	nop
  54:	38 c0       	rjmp	.+112    	; 0xc6 <__bad_interrupt>
  56:	00 00       	nop
  58:	36 c0       	rjmp	.+108    	; 0xc6 <__bad_interrupt>
  5a:	00 00       	nop
  5c:	34 c0       	rjmp	.+104    	; 0xc6 <__bad_interrupt>
  5e:	00 00       	nop
  60:	32 c0       	rjmp	.+100    	; 0xc6 <__bad_interrupt>
  62:	00 00       	nop
  64:	30 c0       	rjmp	.+96     	; 0xc6 <__bad_interrupt>
  66:	00 00       	nop
  68:	2e c0       	rjmp	.+92     	; 0xc6 <__bad_interrupt>
  6a:	00 00       	nop
  6c:	2c c0       	rjmp	.+88     	; 0xc6 <__bad_interrupt>
  6e:	00 00       	nop
  70:	2a c0       	rjmp	.+84     	; 0xc6 <__bad_interrupt>
  72:	00 00       	nop
  74:	28 c0       	rjmp	.+80     	; 0xc6 <__bad_interrupt>
  76:	00 00       	nop
  78:	26 c0       	rjmp	.+76     	; 0xc6 <__bad_interrupt>
  7a:	00 00       	nop
  7c:	24 c0       	rjmp	.+72     	; 0xc6 <__bad_interrupt>
  7e:	00 00       	nop
  80:	22 c0       	rjmp	.+68     	; 0xc6 <__bad_interrupt>
  82:	00 00       	nop
  84:	20 c0       	rjmp	.+64     	; 0xc6 <__bad_interrupt>
  86:	00 00       	nop
  88:	1e c0       	rjmp	.+60     	; 0xc6 <__bad_interrupt>
	...

0000008c <__ctors_end>:
  8c:	11 24       	eor	r1, r1
  8e:	1f be       	out	0x3f, r1	; 63
  90:	cf ef       	ldi	r28, 0xFF	; 255
  92:	d0 e1       	ldi	r29, 0x10	; 16
  94:	de bf       	out	0x3e, r29	; 62
  96:	cd bf       	out	0x3d, r28	; 61

00000098 <__do_copy_data>:
  98:	11 e0       	ldi	r17, 0x01	; 1
  9a:	a0 e0       	ldi	r26, 0x00	; 0
  9c:	b1 e0       	ldi	r27, 0x01	; 1
  9e:	e6 e9       	ldi	r30, 0x96	; 150
  a0:	f7 e0       	ldi	r31, 0x07	; 7
  a2:	00 e0       	ldi	r16, 0x00	; 0
  a4:	0b bf       	out	0x3b, r16	; 59
  a6:	02 c0       	rjmp	.+4      	; 0xac <__do_copy_data+0x14>
  a8:	07 90       	elpm	r0, Z+
  aa:	0d 92       	st	X+, r0
  ac:	ac 31       	cpi	r26, 0x1C	; 28
  ae:	b1 07       	cpc	r27, r17
  b0:	d9 f7       	brne	.-10     	; 0xa8 <__do_copy_data+0x10>

000000b2 <__do_clear_bss>:
  b2:	21 e0       	ldi	r18, 0x01	; 1
  b4:	ac e1       	ldi	r26, 0x1C	; 28
  b6:	b1 e0       	ldi	r27, 0x01	; 1
  b8:	01 c0       	rjmp	.+2      	; 0xbc <.do_clear_bss_start>

000000ba <.do_clear_bss_loop>:
  ba:	1d 92       	st	X+, r1

000000bc <.do_clear_bss_start>:
  bc:	aa 33       	cpi	r26, 0x3A	; 58
  be:	b2 07       	cpc	r27, r18
  c0:	e1 f7       	brne	.-8      	; 0xba <.do_clear_bss_loop>
  c2:	c6 d1       	rcall	.+908    	; 0x450 <main>
  c4:	66 c3       	rjmp	.+1740   	; 0x792 <_exit>

000000c6 <__bad_interrupt>:
  c6:	9c cf       	rjmp	.-200    	; 0x0 <__vectors>

000000c8 <init_button>:
int get_button(int button_num, int button_pin);

// 버튼 초기화 방향설정(입력) 
void init_button(void)
{
	BUTTON_DDR &= ~(1 << BUTTON0PIN | 1 << BUTTON1PIN | 1 << BUTTON2PIN | 1 << BUTTON3PIN);
  c8:	81 b3       	in	r24, 0x11	; 17
  ca:	87 78       	andi	r24, 0x87	; 135
  cc:	81 bb       	out	0x11, r24	; 17
  ce:	08 95       	ret

000000d0 <get_button>:
	};
	// static 지역변수에 static을 선언하면 함수를 빠져나와 다시 들어가도 이전값유지 
	int current_state;
	
	// 1. button을 읽는다. 
	current_state = BUTTON_PIN & (1 << button_pin);
  d0:	20 b3       	in	r18, 0x10	; 16
  d2:	42 2f       	mov	r20, r18
  d4:	50 e0       	ldi	r21, 0x00	; 0
  d6:	21 e0       	ldi	r18, 0x01	; 1
  d8:	30 e0       	ldi	r19, 0x00	; 0
  da:	02 c0       	rjmp	.+4      	; 0xe0 <get_button+0x10>
  dc:	22 0f       	add	r18, r18
  de:	33 1f       	adc	r19, r19
  e0:	6a 95       	dec	r22
  e2:	e2 f7       	brpl	.-8      	; 0xdc <get_button+0xc>
  e4:	24 23       	and	r18, r20
  e6:	35 23       	and	r19, r21
	// 2. 버튼 상태 check 
	if (current_state  && button_status[button_num] == BUTTON_RELEASE)  // 버튼이 처음 눌려진 상태 
  e8:	21 15       	cp	r18, r1
  ea:	31 05       	cpc	r19, r1
  ec:	a1 f0       	breq	.+40     	; 0x116 <get_button+0x46>
  ee:	fc 01       	movw	r30, r24
  f0:	e4 5e       	subi	r30, 0xE4	; 228
  f2:	fe 4f       	sbci	r31, 0xFE	; 254
  f4:	40 81       	ld	r20, Z
  f6:	41 11       	cpse	r20, r1
  f8:	0e c0       	rjmp	.+28     	; 0x116 <get_button+0x46>
	#else
		//round up by default
		__ticks_dc = (uint32_t)(ceil(fabs(__tmp)));
	#endif

	__builtin_avr_delay_cycles(__ticks_dc);
  fa:	ef e5       	ldi	r30, 0x5F	; 95
  fc:	fa ee       	ldi	r31, 0xEA	; 234
  fe:	31 97       	sbiw	r30, 0x01	; 1
 100:	f1 f7       	brne	.-4      	; 0xfe <get_button+0x2e>
 102:	00 c0       	rjmp	.+0      	; 0x104 <get_button+0x34>
 104:	00 00       	nop
	{
		_delay_ms(15);  // noise가 지나가기를 기다린다. 
		button_status[button_num] = BUTTON_PRESS;  
 106:	fc 01       	movw	r30, r24
 108:	e4 5e       	subi	r30, 0xE4	; 228
 10a:	fe 4f       	sbci	r31, 0xFE	; 254
 10c:	21 e0       	ldi	r18, 0x01	; 1
 10e:	20 83       	st	Z, r18
		return 0;     // 아직은 완전히 눌렀다 뗀 상태가 아니다. 
 110:	80 e0       	ldi	r24, 0x00	; 0
 112:	90 e0       	ldi	r25, 0x00	; 0
 114:	08 95       	ret
	}
	else if (button_status[button_num] == BUTTON_PRESS && current_state == BUTTON_RELEASE)
 116:	fc 01       	movw	r30, r24
 118:	e4 5e       	subi	r30, 0xE4	; 228
 11a:	fe 4f       	sbci	r31, 0xFE	; 254
 11c:	40 81       	ld	r20, Z
 11e:	41 30       	cpi	r20, 0x01	; 1
 120:	79 f4       	brne	.+30     	; 0x140 <get_button+0x70>
 122:	23 2b       	or	r18, r19
 124:	81 f4       	brne	.+32     	; 0x146 <get_button+0x76>
	{  // 버튼이 이전에 눌려진 상태였으며 지금은 떼어진 상태 
		button_status[button_num] = BUTTON_RELEASE;   // 다음 버튼을 체크 하기 위하여 초기화
 126:	fc 01       	movw	r30, r24
 128:	e4 5e       	subi	r30, 0xE4	; 228
 12a:	fe 4f       	sbci	r31, 0xFE	; 254
 12c:	10 82       	st	Z, r1
 12e:	8f e5       	ldi	r24, 0x5F	; 95
 130:	9a ee       	ldi	r25, 0xEA	; 234
 132:	01 97       	sbiw	r24, 0x01	; 1
 134:	f1 f7       	brne	.-4      	; 0x132 <get_button+0x62>
 136:	00 c0       	rjmp	.+0      	; 0x138 <get_button+0x68>
 138:	00 00       	nop
		_delay_ms(15);  // noise가 지나가기를 기다린다. 
		return 1;   // 완전히 1번 눌렀다 뗀 상태로 인정 한다. 
 13a:	81 e0       	ldi	r24, 0x01	; 1
 13c:	90 e0       	ldi	r25, 0x00	; 0
 13e:	08 95       	ret
	}
	
	return 0;   // 버튼이 open 상태 이다. 
 140:	80 e0       	ldi	r24, 0x00	; 0
 142:	90 e0       	ldi	r25, 0x00	; 0
 144:	08 95       	ret
 146:	80 e0       	ldi	r24, 0x00	; 0
 148:	90 e0       	ldi	r25, 0x00	; 0
}
 14a:	08 95       	ret

0000014c <init_fnd>:
	return 0;
}


void init_fnd(){
	FND_DATA_DDR = 0xff; //출력모드로 설정
 14c:	9f ef       	ldi	r25, 0xFF	; 255
 14e:	94 bb       	out	0x14, r25	; 20
	FND_DIGHT_DDR |= 1 << FND_DIGHT_D1 | 1 << FND_DIGHT_D2 | 1 << FND_DIGHT_D3 | 1 << FND_DIGHT_D4;
 150:	87 b3       	in	r24, 0x17	; 23
 152:	80 6f       	ori	r24, 0xF0	; 240
 154:	87 bb       	out	0x17, r24	; 23
	
	//FND를 전체 off하는 작업
	FND_DATA_PORT = 0xff;
 156:	95 bb       	out	0x15, r25	; 21
 158:	08 95       	ret

0000015a <fnd_washing_time_set_display>:

//설정모드 FND화면 
void fnd_washing_time_set_display(int set_time){
	static int digit_select = 0; // 자리수 선택

	switch(digit_select){
 15a:	20 91 22 01 	lds	r18, 0x0122	; 0x800122 <digit_select.1746>
 15e:	30 91 23 01 	lds	r19, 0x0123	; 0x800123 <digit_select.1746+0x1>
 162:	21 30       	cpi	r18, 0x01	; 1
 164:	31 05       	cpc	r19, r1
 166:	d1 f0       	breq	.+52     	; 0x19c <fnd_washing_time_set_display+0x42>
 168:	1c f4       	brge	.+6      	; 0x170 <fnd_washing_time_set_display+0x16>
 16a:	23 2b       	or	r18, r19
 16c:	41 f0       	breq	.+16     	; 0x17e <fnd_washing_time_set_display+0x24>
 16e:	2a c0       	rjmp	.+84     	; 0x1c4 <fnd_washing_time_set_display+0x6a>
 170:	22 30       	cpi	r18, 0x02	; 2
 172:	31 05       	cpc	r19, r1
 174:	f1 f0       	breq	.+60     	; 0x1b2 <fnd_washing_time_set_display+0x58>
 176:	23 30       	cpi	r18, 0x03	; 3
 178:	31 05       	cpc	r19, r1
 17a:	01 f1       	breq	.+64     	; 0x1bc <fnd_washing_time_set_display+0x62>
 17c:	23 c0       	rjmp	.+70     	; 0x1c4 <fnd_washing_time_set_display+0x6a>
		case 0: //1단위
		FND_DIGHT_PORT = 0x80; 
 17e:	20 e8       	ldi	r18, 0x80	; 128
 180:	28 bb       	out	0x18, r18	; 24
		FND_DATA_PORT = fnd_font[(set_time / 6) % 10]; 
 182:	66 e0       	ldi	r22, 0x06	; 6
 184:	70 e0       	ldi	r23, 0x00	; 0
 186:	bc d2       	rcall	.+1400   	; 0x700 <__divmodhi4>
 188:	cb 01       	movw	r24, r22
 18a:	6a e0       	ldi	r22, 0x0A	; 10
 18c:	70 e0       	ldi	r23, 0x00	; 0
 18e:	b8 d2       	rcall	.+1392   	; 0x700 <__divmodhi4>
 190:	fc 01       	movw	r30, r24
 192:	e0 5f       	subi	r30, 0xF0	; 240
 194:	fe 4f       	sbci	r31, 0xFE	; 254
 196:	80 81       	ld	r24, Z
 198:	85 bb       	out	0x15, r24	; 21
		break;
 19a:	14 c0       	rjmp	.+40     	; 0x1c4 <fnd_washing_time_set_display+0x6a>
		
		case 1: // 10단위
		FND_DIGHT_PORT = 0x40; 
 19c:	20 e4       	ldi	r18, 0x40	; 64
 19e:	28 bb       	out	0x18, r18	; 24
		FND_DATA_PORT = fnd_font[set_time / 6]; 
 1a0:	66 e0       	ldi	r22, 0x06	; 6
 1a2:	70 e0       	ldi	r23, 0x00	; 0
 1a4:	ad d2       	rcall	.+1370   	; 0x700 <__divmodhi4>
 1a6:	fb 01       	movw	r30, r22
 1a8:	e0 5f       	subi	r30, 0xF0	; 240
 1aa:	fe 4f       	sbci	r31, 0xFE	; 254
 1ac:	80 81       	ld	r24, Z
 1ae:	85 bb       	out	0x15, r24	; 21
		break;
 1b0:	09 c0       	rjmp	.+18     	; 0x1c4 <fnd_washing_time_set_display+0x6a>
		
		case 2: // 100단위
		FND_DIGHT_PORT = 0x20;
 1b2:	80 e2       	ldi	r24, 0x20	; 32
 1b4:	88 bb       	out	0x18, r24	; 24
		FND_DATA_PORT =  0xff;
 1b6:	8f ef       	ldi	r24, 0xFF	; 255
 1b8:	85 bb       	out	0x15, r24	; 21
		break;
 1ba:	04 c0       	rjmp	.+8      	; 0x1c4 <fnd_washing_time_set_display+0x6a>
		
		case 3: // 1000단위
		FND_DIGHT_PORT = 0x10;
 1bc:	80 e1       	ldi	r24, 0x10	; 16
 1be:	88 bb       	out	0x18, r24	; 24
		FND_DATA_PORT =  0xff;
 1c0:	8f ef       	ldi	r24, 0xFF	; 255
 1c2:	85 bb       	out	0x15, r24	; 21
 1c4:	8f e9       	ldi	r24, 0x9F	; 159
 1c6:	9f e0       	ldi	r25, 0x0F	; 15
 1c8:	01 97       	sbiw	r24, 0x01	; 1
 1ca:	f1 f7       	brne	.-4      	; 0x1c8 <fnd_washing_time_set_display+0x6e>
 1cc:	00 c0       	rjmp	.+0      	; 0x1ce <fnd_washing_time_set_display+0x74>
 1ce:	00 00       	nop
	}
	_delay_ms(1);
	digit_select = (digit_select + 1) % 4;
 1d0:	80 91 22 01 	lds	r24, 0x0122	; 0x800122 <digit_select.1746>
 1d4:	90 91 23 01 	lds	r25, 0x0123	; 0x800123 <digit_select.1746+0x1>
 1d8:	01 96       	adiw	r24, 0x01	; 1
 1da:	83 70       	andi	r24, 0x03	; 3
 1dc:	90 78       	andi	r25, 0x80	; 128
 1de:	99 23       	and	r25, r25
 1e0:	24 f4       	brge	.+8      	; 0x1ea <fnd_washing_time_set_display+0x90>
 1e2:	01 97       	sbiw	r24, 0x01	; 1
 1e4:	8c 6f       	ori	r24, 0xFC	; 252
 1e6:	9f 6f       	ori	r25, 0xFF	; 255
 1e8:	01 96       	adiw	r24, 0x01	; 1
 1ea:	90 93 23 01 	sts	0x0123, r25	; 0x800123 <digit_select.1746+0x1>
 1ee:	80 93 22 01 	sts	0x0122, r24	; 0x800122 <digit_select.1746>
 1f2:	08 95       	ret

000001f4 <fnd_washing_time_display>:
//동작모드 FND화면
void fnd_washing_time_display(){
	
	static int digit_select = 0; // 자리수 선택

	switch(digit_select){
 1f4:	80 91 20 01 	lds	r24, 0x0120	; 0x800120 <digit_select.1754>
 1f8:	90 91 21 01 	lds	r25, 0x0121	; 0x800121 <digit_select.1754+0x1>
 1fc:	81 30       	cpi	r24, 0x01	; 1
 1fe:	91 05       	cpc	r25, r1
 200:	09 f4       	brne	.+2      	; 0x204 <fnd_washing_time_display+0x10>
 202:	47 c0       	rjmp	.+142    	; 0x292 <fnd_washing_time_display+0x9e>
 204:	1c f4       	brge	.+6      	; 0x20c <fnd_washing_time_display+0x18>
 206:	89 2b       	or	r24, r25
 208:	49 f0       	breq	.+18     	; 0x21c <fnd_washing_time_display+0x28>
 20a:	9e c0       	rjmp	.+316    	; 0x348 <fnd_washing_time_display+0x154>
 20c:	82 30       	cpi	r24, 0x02	; 2
 20e:	91 05       	cpc	r25, r1
 210:	09 f4       	brne	.+2      	; 0x214 <fnd_washing_time_display+0x20>
 212:	73 c0       	rjmp	.+230    	; 0x2fa <fnd_washing_time_display+0x106>
 214:	03 97       	sbiw	r24, 0x03	; 3
 216:	09 f4       	brne	.+2      	; 0x21a <fnd_washing_time_display+0x26>
 218:	84 c0       	rjmp	.+264    	; 0x322 <fnd_washing_time_display+0x12e>
 21a:	96 c0       	rjmp	.+300    	; 0x348 <fnd_washing_time_display+0x154>
		case 0: //1단위
		FND_DIGHT_PORT = 0x80; 
 21c:	80 e8       	ldi	r24, 0x80	; 128
 21e:	88 bb       	out	0x18, r24	; 24
		if(left_time >= 60) FND_DATA_PORT = fnd_font[(left_time / 60) % 10]; 
 220:	80 91 24 01 	lds	r24, 0x0124	; 0x800124 <left_time>
 224:	90 91 25 01 	lds	r25, 0x0125	; 0x800125 <left_time+0x1>
 228:	a0 91 26 01 	lds	r26, 0x0126	; 0x800126 <left_time+0x2>
 22c:	b0 91 27 01 	lds	r27, 0x0127	; 0x800127 <left_time+0x3>
 230:	cc 97       	sbiw	r24, 0x3c	; 60
 232:	a1 05       	cpc	r26, r1
 234:	b1 05       	cpc	r27, r1
 236:	d0 f0       	brcs	.+52     	; 0x26c <fnd_washing_time_display+0x78>
 238:	60 91 24 01 	lds	r22, 0x0124	; 0x800124 <left_time>
 23c:	70 91 25 01 	lds	r23, 0x0125	; 0x800125 <left_time+0x1>
 240:	80 91 26 01 	lds	r24, 0x0126	; 0x800126 <left_time+0x2>
 244:	90 91 27 01 	lds	r25, 0x0127	; 0x800127 <left_time+0x3>
 248:	2c e3       	ldi	r18, 0x3C	; 60
 24a:	30 e0       	ldi	r19, 0x00	; 0
 24c:	40 e0       	ldi	r20, 0x00	; 0
 24e:	50 e0       	ldi	r21, 0x00	; 0
 250:	6a d2       	rcall	.+1236   	; 0x726 <__udivmodsi4>
 252:	ca 01       	movw	r24, r20
 254:	b9 01       	movw	r22, r18
 256:	2a e0       	ldi	r18, 0x0A	; 10
 258:	30 e0       	ldi	r19, 0x00	; 0
 25a:	40 e0       	ldi	r20, 0x00	; 0
 25c:	50 e0       	ldi	r21, 0x00	; 0
 25e:	63 d2       	rcall	.+1222   	; 0x726 <__udivmodsi4>
 260:	fb 01       	movw	r30, r22
 262:	e0 5f       	subi	r30, 0xF0	; 240
 264:	fe 4f       	sbci	r31, 0xFE	; 254
 266:	80 81       	ld	r24, Z
 268:	85 bb       	out	0x15, r24	; 21
 26a:	6e c0       	rjmp	.+220    	; 0x348 <fnd_washing_time_display+0x154>
		else FND_DATA_PORT = fnd_font[left_time % 10]; 
 26c:	60 91 24 01 	lds	r22, 0x0124	; 0x800124 <left_time>
 270:	70 91 25 01 	lds	r23, 0x0125	; 0x800125 <left_time+0x1>
 274:	80 91 26 01 	lds	r24, 0x0126	; 0x800126 <left_time+0x2>
 278:	90 91 27 01 	lds	r25, 0x0127	; 0x800127 <left_time+0x3>
 27c:	2a e0       	ldi	r18, 0x0A	; 10
 27e:	30 e0       	ldi	r19, 0x00	; 0
 280:	40 e0       	ldi	r20, 0x00	; 0
 282:	50 e0       	ldi	r21, 0x00	; 0
 284:	50 d2       	rcall	.+1184   	; 0x726 <__udivmodsi4>
 286:	fb 01       	movw	r30, r22
 288:	e0 5f       	subi	r30, 0xF0	; 240
 28a:	fe 4f       	sbci	r31, 0xFE	; 254
 28c:	80 81       	ld	r24, Z
 28e:	85 bb       	out	0x15, r24	; 21
 290:	5b c0       	rjmp	.+182    	; 0x348 <fnd_washing_time_display+0x154>
		break;
		
		case 1: // 10단위
		FND_DIGHT_PORT = 0x40; 
 292:	80 e4       	ldi	r24, 0x40	; 64
 294:	88 bb       	out	0x18, r24	; 24
		if(left_time >= 60) FND_DATA_PORT = fnd_font[(left_time / 60) / 10]; 
 296:	80 91 24 01 	lds	r24, 0x0124	; 0x800124 <left_time>
 29a:	90 91 25 01 	lds	r25, 0x0125	; 0x800125 <left_time+0x1>
 29e:	a0 91 26 01 	lds	r26, 0x0126	; 0x800126 <left_time+0x2>
 2a2:	b0 91 27 01 	lds	r27, 0x0127	; 0x800127 <left_time+0x3>
 2a6:	cc 97       	sbiw	r24, 0x3c	; 60
 2a8:	a1 05       	cpc	r26, r1
 2aa:	b1 05       	cpc	r27, r1
 2ac:	98 f0       	brcs	.+38     	; 0x2d4 <fnd_washing_time_display+0xe0>
 2ae:	60 91 24 01 	lds	r22, 0x0124	; 0x800124 <left_time>
 2b2:	70 91 25 01 	lds	r23, 0x0125	; 0x800125 <left_time+0x1>
 2b6:	80 91 26 01 	lds	r24, 0x0126	; 0x800126 <left_time+0x2>
 2ba:	90 91 27 01 	lds	r25, 0x0127	; 0x800127 <left_time+0x3>
 2be:	28 e5       	ldi	r18, 0x58	; 88
 2c0:	32 e0       	ldi	r19, 0x02	; 2
 2c2:	40 e0       	ldi	r20, 0x00	; 0
 2c4:	50 e0       	ldi	r21, 0x00	; 0
 2c6:	2f d2       	rcall	.+1118   	; 0x726 <__udivmodsi4>
 2c8:	f9 01       	movw	r30, r18
 2ca:	e0 5f       	subi	r30, 0xF0	; 240
 2cc:	fe 4f       	sbci	r31, 0xFE	; 254
 2ce:	80 81       	ld	r24, Z
 2d0:	85 bb       	out	0x15, r24	; 21
 2d2:	3a c0       	rjmp	.+116    	; 0x348 <fnd_washing_time_display+0x154>
		else FND_DATA_PORT = fnd_font[left_time / 10]; 
 2d4:	60 91 24 01 	lds	r22, 0x0124	; 0x800124 <left_time>
 2d8:	70 91 25 01 	lds	r23, 0x0125	; 0x800125 <left_time+0x1>
 2dc:	80 91 26 01 	lds	r24, 0x0126	; 0x800126 <left_time+0x2>
 2e0:	90 91 27 01 	lds	r25, 0x0127	; 0x800127 <left_time+0x3>
 2e4:	2a e0       	ldi	r18, 0x0A	; 10
 2e6:	30 e0       	ldi	r19, 0x00	; 0
 2e8:	40 e0       	ldi	r20, 0x00	; 0
 2ea:	50 e0       	ldi	r21, 0x00	; 0
 2ec:	1c d2       	rcall	.+1080   	; 0x726 <__udivmodsi4>
 2ee:	f9 01       	movw	r30, r18
 2f0:	e0 5f       	subi	r30, 0xF0	; 240
 2f2:	fe 4f       	sbci	r31, 0xFE	; 254
 2f4:	80 81       	ld	r24, Z
 2f6:	85 bb       	out	0x15, r24	; 21
 2f8:	27 c0       	rjmp	.+78     	; 0x348 <fnd_washing_time_display+0x154>
		break;
		
		case 2: // 100단위
		FND_DIGHT_PORT = 0x20;
 2fa:	80 e2       	ldi	r24, 0x20	; 32
 2fc:	88 bb       	out	0x18, r24	; 24
		FND_DATA_PORT = big_circle_right[left_time % 8];
 2fe:	80 91 24 01 	lds	r24, 0x0124	; 0x800124 <left_time>
 302:	90 91 25 01 	lds	r25, 0x0125	; 0x800125 <left_time+0x1>
 306:	a0 91 26 01 	lds	r26, 0x0126	; 0x800126 <left_time+0x2>
 30a:	b0 91 27 01 	lds	r27, 0x0127	; 0x800127 <left_time+0x3>
 30e:	87 70       	andi	r24, 0x07	; 7
 310:	99 27       	eor	r25, r25
 312:	aa 27       	eor	r26, r26
 314:	bb 27       	eor	r27, r27
 316:	fc 01       	movw	r30, r24
 318:	e0 50       	subi	r30, 0x00	; 0
 31a:	ff 4f       	sbci	r31, 0xFF	; 255
 31c:	80 81       	ld	r24, Z
 31e:	85 bb       	out	0x15, r24	; 21
		break;
 320:	13 c0       	rjmp	.+38     	; 0x348 <fnd_washing_time_display+0x154>
		
		case 3: // 1000단위
		FND_DIGHT_PORT = 0x10;
 322:	80 e1       	ldi	r24, 0x10	; 16
 324:	88 bb       	out	0x18, r24	; 24
		FND_DATA_PORT = big_circle_left[left_time % 8];
 326:	80 91 24 01 	lds	r24, 0x0124	; 0x800124 <left_time>
 32a:	90 91 25 01 	lds	r25, 0x0125	; 0x800125 <left_time+0x1>
 32e:	a0 91 26 01 	lds	r26, 0x0126	; 0x800126 <left_time+0x2>
 332:	b0 91 27 01 	lds	r27, 0x0127	; 0x800127 <left_time+0x3>
 336:	87 70       	andi	r24, 0x07	; 7
 338:	99 27       	eor	r25, r25
 33a:	aa 27       	eor	r26, r26
 33c:	bb 27       	eor	r27, r27
 33e:	fc 01       	movw	r30, r24
 340:	e8 5f       	subi	r30, 0xF8	; 248
 342:	fe 4f       	sbci	r31, 0xFE	; 254
 344:	80 81       	ld	r24, Z
 346:	85 bb       	out	0x15, r24	; 21
 348:	8f e9       	ldi	r24, 0x9F	; 159
 34a:	9f e0       	ldi	r25, 0x0F	; 15
 34c:	01 97       	sbiw	r24, 0x01	; 1
 34e:	f1 f7       	brne	.-4      	; 0x34c <fnd_washing_time_display+0x158>
 350:	00 c0       	rjmp	.+0      	; 0x352 <fnd_washing_time_display+0x15e>
 352:	00 00       	nop
		break;
	}
	_delay_ms(1);
	digit_select = (digit_select + 1) % 4;
 354:	80 91 20 01 	lds	r24, 0x0120	; 0x800120 <digit_select.1754>
 358:	90 91 21 01 	lds	r25, 0x0121	; 0x800121 <digit_select.1754+0x1>
 35c:	01 96       	adiw	r24, 0x01	; 1
 35e:	83 70       	andi	r24, 0x03	; 3
 360:	90 78       	andi	r25, 0x80	; 128
 362:	99 23       	and	r25, r25
 364:	24 f4       	brge	.+8      	; 0x36e <fnd_washing_time_display+0x17a>
 366:	01 97       	sbiw	r24, 0x01	; 1
 368:	8c 6f       	ori	r24, 0xFC	; 252
 36a:	9f 6f       	ori	r25, 0xFF	; 255
 36c:	01 96       	adiw	r24, 0x01	; 1
 36e:	90 93 21 01 	sts	0x0121, r25	; 0x800121 <digit_select.1754+0x1>
 372:	80 93 20 01 	sts	0x0120, r24	; 0x800120 <digit_select.1754>
 376:	08 95       	ret

00000378 <init_led>:
static int flower_on_i = 0;
static int flower_off_i = 0;

void init_led(void)
{
	DDRA=0xff;  // PORTA 를 출력 모드로 설정
 378:	8f ef       	ldi	r24, 0xFF	; 255
 37a:	8a bb       	out	0x1a, r24	; 26
	PORTA=0x00;  // PORTA에 물려있는 led를 all off 	
 37c:	1b ba       	out	0x1b, r1	; 27
 37e:	08 95       	ret

00000380 <__vector_16>:
extern void init_washing_motor_driver();
extern void init_timer3_pwm();
extern void washing_comtrol_main();
void init_timer0();

ISR(TIMER0_OVF_vect){
 380:	1f 92       	push	r1
 382:	0f 92       	push	r0
 384:	0f b6       	in	r0, 0x3f	; 63
 386:	0f 92       	push	r0
 388:	11 24       	eor	r1, r1
 38a:	8f 93       	push	r24
 38c:	9f 93       	push	r25
 38e:	af 93       	push	r26
 390:	bf 93       	push	r27
	TCNT0 = 6;
 392:	86 e0       	ldi	r24, 0x06	; 6
 394:	82 bf       	out	0x32, r24	; 50
	ms_count++;
 396:	80 91 28 01 	lds	r24, 0x0128	; 0x800128 <ms_count>
 39a:	90 91 29 01 	lds	r25, 0x0129	; 0x800129 <ms_count+0x1>
 39e:	a0 91 2a 01 	lds	r26, 0x012A	; 0x80012a <ms_count+0x2>
 3a2:	b0 91 2b 01 	lds	r27, 0x012B	; 0x80012b <ms_count+0x3>
 3a6:	01 96       	adiw	r24, 0x01	; 1
 3a8:	a1 1d       	adc	r26, r1
 3aa:	b1 1d       	adc	r27, r1
 3ac:	80 93 28 01 	sts	0x0128, r24	; 0x800128 <ms_count>
 3b0:	90 93 29 01 	sts	0x0129, r25	; 0x800129 <ms_count+0x1>
 3b4:	a0 93 2a 01 	sts	0x012A, r26	; 0x80012a <ms_count+0x2>
 3b8:	b0 93 2b 01 	sts	0x012B, r27	; 0x80012b <ms_count+0x3>
	
	if(ms_count >= 250 && left_time > 0){
 3bc:	80 91 28 01 	lds	r24, 0x0128	; 0x800128 <ms_count>
 3c0:	90 91 29 01 	lds	r25, 0x0129	; 0x800129 <ms_count+0x1>
 3c4:	a0 91 2a 01 	lds	r26, 0x012A	; 0x80012a <ms_count+0x2>
 3c8:	b0 91 2b 01 	lds	r27, 0x012B	; 0x80012b <ms_count+0x3>
 3cc:	8a 3f       	cpi	r24, 0xFA	; 250
 3ce:	91 05       	cpc	r25, r1
 3d0:	a1 05       	cpc	r26, r1
 3d2:	b1 05       	cpc	r27, r1
 3d4:	38 f1       	brcs	.+78     	; 0x424 <__LOCK_REGION_LENGTH__+0x24>
 3d6:	80 91 24 01 	lds	r24, 0x0124	; 0x800124 <left_time>
 3da:	90 91 25 01 	lds	r25, 0x0125	; 0x800125 <left_time+0x1>
 3de:	a0 91 26 01 	lds	r26, 0x0126	; 0x800126 <left_time+0x2>
 3e2:	b0 91 27 01 	lds	r27, 0x0127	; 0x800127 <left_time+0x3>
 3e6:	89 2b       	or	r24, r25
 3e8:	8a 2b       	or	r24, r26
 3ea:	8b 2b       	or	r24, r27
 3ec:	d9 f0       	breq	.+54     	; 0x424 <__LOCK_REGION_LENGTH__+0x24>
		ms_count = 0;
 3ee:	10 92 28 01 	sts	0x0128, r1	; 0x800128 <ms_count>
 3f2:	10 92 29 01 	sts	0x0129, r1	; 0x800129 <ms_count+0x1>
 3f6:	10 92 2a 01 	sts	0x012A, r1	; 0x80012a <ms_count+0x2>
 3fa:	10 92 2b 01 	sts	0x012B, r1	; 0x80012b <ms_count+0x3>
		left_time--;
 3fe:	80 91 24 01 	lds	r24, 0x0124	; 0x800124 <left_time>
 402:	90 91 25 01 	lds	r25, 0x0125	; 0x800125 <left_time+0x1>
 406:	a0 91 26 01 	lds	r26, 0x0126	; 0x800126 <left_time+0x2>
 40a:	b0 91 27 01 	lds	r27, 0x0127	; 0x800127 <left_time+0x3>
 40e:	01 97       	sbiw	r24, 0x01	; 1
 410:	a1 09       	sbc	r26, r1
 412:	b1 09       	sbc	r27, r1
 414:	80 93 24 01 	sts	0x0124, r24	; 0x800124 <left_time>
 418:	90 93 25 01 	sts	0x0125, r25	; 0x800125 <left_time+0x1>
 41c:	a0 93 26 01 	sts	0x0126, r26	; 0x800126 <left_time+0x2>
 420:	b0 93 27 01 	sts	0x0127, r27	; 0x800127 <left_time+0x3>
	}
}
 424:	bf 91       	pop	r27
 426:	af 91       	pop	r26
 428:	9f 91       	pop	r25
 42a:	8f 91       	pop	r24
 42c:	0f 90       	pop	r0
 42e:	0f be       	out	0x3f, r0	; 63
 430:	0f 90       	pop	r0
 432:	1f 90       	pop	r1
 434:	18 95       	reti

00000436 <init_timer0>:
	washing_comtrol_main();

}

void init_timer0(){
	TCNT0 = 6;
 436:	86 e0       	ldi	r24, 0x06	; 6
 438:	82 bf       	out	0x32, r24	; 50
	
	TCCR0 &= ~1 << CS02 | 1 << CS01 | 1<< CS00; //0분주 초기화 설정
 43a:	83 b7       	in	r24, 0x33	; 51
 43c:	8b 7f       	andi	r24, 0xFB	; 251
 43e:	83 bf       	out	0x33, r24	; 51
	TCCR0 |= 1 << CS02 | 0 << CS01 | 0 << CS00; //256분주
 440:	83 b7       	in	r24, 0x33	; 51
 442:	84 60       	ori	r24, 0x04	; 4
 444:	83 bf       	out	0x33, r24	; 51
	
	TIMSK |= 1 << TOIE0; // TIMER0 OVERflow INT
 446:	87 b7       	in	r24, 0x37	; 55
 448:	81 60       	ori	r24, 0x01	; 1
 44a:	87 bf       	out	0x37, r24	; 55
	sei(); // 전역(대문) interrupt 허용
 44c:	78 94       	sei
 44e:	08 95       	ret

00000450 <main>:
	}
}

int main(void)
{
	init_fnd();
 450:	7d de       	rcall	.-774    	; 0x14c <init_fnd>
	init_button();
 452:	3a de       	rcall	.-908    	; 0xc8 <init_button>
	init_led();
 454:	91 df       	rcall	.-222    	; 0x378 <init_led>
	init_timer0();
 456:	ef df       	rcall	.-34     	; 0x436 <init_timer0>
	init_timer3_pwm();
 458:	13 d0       	rcall	.+38     	; 0x480 <init_timer3_pwm>
 45a:	04 d0       	rcall	.+8      	; 0x464 <init_washing_motor_driver>
	init_washing_motor_driver();
 45c:	6c d0       	rcall	.+216    	; 0x536 <washing_comtrol_main>
 45e:	80 e0       	ldi	r24, 0x00	; 0
	
	washing_comtrol_main();
 460:	90 e0       	ldi	r25, 0x00	; 0
 462:	08 95       	ret

00000464 <init_washing_motor_driver>:

}
 464:	e1 e6       	ldi	r30, 0x61	; 97
 466:	f0 e0       	ldi	r31, 0x00	; 0
 468:	80 81       	ld	r24, Z

extern int get_button(int button_num, int button_pin);


void init_washing_motor_driver(){
	DDRF |= 1 << 6 | 1 << 7;
 46a:	80 6c       	ori	r24, 0xC0	; 192
 46c:	80 83       	st	Z, r24
	PORTF &= ~(1 << 6 | 1 << 7);
 46e:	e2 e6       	ldi	r30, 0x62	; 98
 470:	f0 e0       	ldi	r31, 0x00	; 0
 472:	80 81       	ld	r24, Z
 474:	8f 73       	andi	r24, 0x3F	; 63
 476:	80 83       	st	Z, r24
	PORTF |= 1 << 6;
 478:	80 81       	ld	r24, Z
 47a:	80 64       	ori	r24, 0x40	; 64
 47c:	80 83       	st	Z, r24
 47e:	08 95       	ret

00000480 <init_timer3_pwm>:
}

void init_timer3_pwm(){
	//PE4 초음파 연결
	DDRE |= 1 << 3 | 1 << 5;
 480:	82 b1       	in	r24, 0x02	; 2
 482:	88 62       	ori	r24, 0x28	; 40
 484:	82 b9       	out	0x02, r24	; 2
	
	//모드 5번 사용 8bit 고속 BWM모드
	TCCR3A |= 1 << WGM30;
 486:	ab e8       	ldi	r26, 0x8B	; 139
 488:	b0 e0       	ldi	r27, 0x00	; 0
 48a:	8c 91       	ld	r24, X
 48c:	81 60       	ori	r24, 0x01	; 1
 48e:	8c 93       	st	X, r24
	TCCR3B |= 1 << WGM32;
 490:	ea e8       	ldi	r30, 0x8A	; 138
 492:	f0 e0       	ldi	r31, 0x00	; 0
 494:	80 81       	ld	r24, Z
 496:	88 60       	ori	r24, 0x08	; 8
 498:	80 83       	st	Z, r24
	
	//비반전 모드 top : 0x00ff 비교일치 값 (PWM) 지정 OCR3
	TCCR3A |= 1 << COM3C1;
 49a:	8c 91       	ld	r24, X
 49c:	88 60       	ori	r24, 0x08	; 8
 49e:	8c 93       	st	X, r24
	
	TCCR3B |= 1 << CS31 | 1 << CS30;
 4a0:	80 81       	ld	r24, Z
 4a2:	83 60       	ori	r24, 0x03	; 3
 4a4:	80 83       	st	Z, r24
	OCR3C = 0; 
 4a6:	10 92 83 00 	sts	0x0083, r1	; 0x800083 <__TEXT_REGION_LENGTH__+0x7e0083>
 4aa:	10 92 82 00 	sts	0x0082, r1	; 0x800082 <__TEXT_REGION_LENGTH__+0x7e0082>
 4ae:	08 95       	ret

000004b0 <mode_change>:
	}
}

//모드 변경 함수
void mode_change(int mode){ 
	current_mode = mode;
 4b0:	90 93 37 01 	sts	0x0137, r25	; 0x800137 <current_mode+0x1>
 4b4:	80 93 36 01 	sts	0x0136, r24	; 0x800136 <current_mode>
	
	if(current_mode == WAITING) {
 4b8:	00 97       	sbiw	r24, 0x00	; 0
 4ba:	31 f4       	brne	.+12     	; 0x4c8 <mode_change+0x18>
		PORTA = 0x00;
 4bc:	1b ba       	out	0x1b, r1	; 27
		OCR3C = 0;
 4be:	10 92 83 00 	sts	0x0083, r1	; 0x800083 <__TEXT_REGION_LENGTH__+0x7e0083>
 4c2:	10 92 82 00 	sts	0x0082, r1	; 0x800082 <__TEXT_REGION_LENGTH__+0x7e0082>
 4c6:	23 c0       	rjmp	.+70     	; 0x50e <mode_change+0x5e>
	}
	
	else if(current_mode == WASHING){
 4c8:	81 30       	cpi	r24, 0x01	; 1
 4ca:	91 05       	cpc	r25, r1
 4cc:	49 f4       	brne	.+18     	; 0x4e0 <mode_change+0x30>
		OCR3C = 100;
 4ce:	24 e6       	ldi	r18, 0x64	; 100
 4d0:	30 e0       	ldi	r19, 0x00	; 0
 4d2:	30 93 83 00 	sts	0x0083, r19	; 0x800083 <__TEXT_REGION_LENGTH__+0x7e0083>
 4d6:	20 93 82 00 	sts	0x0082, r18	; 0x800082 <__TEXT_REGION_LENGTH__+0x7e0082>
		PORTA = 0x01;
 4da:	21 e0       	ldi	r18, 0x01	; 1
 4dc:	2b bb       	out	0x1b, r18	; 27
 4de:	17 c0       	rjmp	.+46     	; 0x50e <mode_change+0x5e>
	}
	else if(current_mode == RINSE){
 4e0:	82 30       	cpi	r24, 0x02	; 2
 4e2:	91 05       	cpc	r25, r1
 4e4:	49 f4       	brne	.+18     	; 0x4f8 <mode_change+0x48>
		OCR3C = 200;
 4e6:	28 ec       	ldi	r18, 0xC8	; 200
 4e8:	30 e0       	ldi	r19, 0x00	; 0
 4ea:	30 93 83 00 	sts	0x0083, r19	; 0x800083 <__TEXT_REGION_LENGTH__+0x7e0083>
 4ee:	20 93 82 00 	sts	0x0082, r18	; 0x800082 <__TEXT_REGION_LENGTH__+0x7e0082>
		PORTA = 0x03;
 4f2:	23 e0       	ldi	r18, 0x03	; 3
 4f4:	2b bb       	out	0x1b, r18	; 27
 4f6:	0b c0       	rjmp	.+22     	; 0x50e <mode_change+0x5e>
	}
	else if(current_mode == DRY){
 4f8:	83 30       	cpi	r24, 0x03	; 3
 4fa:	91 05       	cpc	r25, r1
 4fc:	41 f4       	brne	.+16     	; 0x50e <mode_change+0x5e>
		OCR3C = 250;
 4fe:	2a ef       	ldi	r18, 0xFA	; 250
 500:	30 e0       	ldi	r19, 0x00	; 0
 502:	30 93 83 00 	sts	0x0083, r19	; 0x800083 <__TEXT_REGION_LENGTH__+0x7e0083>
 506:	20 93 82 00 	sts	0x0082, r18	; 0x800082 <__TEXT_REGION_LENGTH__+0x7e0082>
		PORTA = 0x07;
 50a:	27 e0       	ldi	r18, 0x07	; 7
 50c:	2b bb       	out	0x1b, r18	; 27
	}
	
	left_time = time_store[mode];
 50e:	88 0f       	add	r24, r24
 510:	99 1f       	adc	r25, r25
 512:	fc 01       	movw	r30, r24
 514:	e4 5d       	subi	r30, 0xD4	; 212
 516:	fe 4f       	sbci	r31, 0xFE	; 254
 518:	80 81       	ld	r24, Z
 51a:	91 81       	ldd	r25, Z+1	; 0x01
 51c:	09 2e       	mov	r0, r25
 51e:	00 0c       	add	r0, r0
 520:	aa 0b       	sbc	r26, r26
 522:	bb 0b       	sbc	r27, r27
 524:	80 93 24 01 	sts	0x0124, r24	; 0x800124 <left_time>
 528:	90 93 25 01 	sts	0x0125, r25	; 0x800125 <left_time+0x1>
 52c:	a0 93 26 01 	sts	0x0126, r26	; 0x800126 <left_time+0x2>
 530:	b0 93 27 01 	sts	0x0127, r27	; 0x800127 <left_time+0x3>
 534:	08 95       	ret

00000536 <washing_comtrol_main>:


//버튼 제어함수
void washing_comtrol_main(){
	
	int forward = 0;
 536:	c0 e0       	ldi	r28, 0x00	; 0
 538:	d0 e0       	ldi	r29, 0x00	; 0
	
	while(1){
		if(get_button(BUTTON0, BUTTON0PIN)){ // 시작버튼
 53a:	63 e0       	ldi	r22, 0x03	; 3
 53c:	70 e0       	ldi	r23, 0x00	; 0
 53e:	80 e0       	ldi	r24, 0x00	; 0
 540:	90 e0       	ldi	r25, 0x00	; 0
 542:	c6 dd       	rcall	.-1140   	; 0xd0 <get_button>
 544:	89 2b       	or	r24, r25
 546:	31 f1       	breq	.+76     	; 0x594 <washing_comtrol_main+0x5e>
			start_stop_button = !start_stop_button;
 548:	81 e0       	ldi	r24, 0x01	; 1
 54a:	90 e0       	ldi	r25, 0x00	; 0
 54c:	20 91 38 01 	lds	r18, 0x0138	; 0x800138 <start_stop_button>
 550:	30 91 39 01 	lds	r19, 0x0139	; 0x800139 <start_stop_button+0x1>
 554:	23 2b       	or	r18, r19
 556:	11 f0       	breq	.+4      	; 0x55c <washing_comtrol_main+0x26>
 558:	80 e0       	ldi	r24, 0x00	; 0
 55a:	90 e0       	ldi	r25, 0x00	; 0
 55c:	90 93 39 01 	sts	0x0139, r25	; 0x800139 <start_stop_button+0x1>
 560:	80 93 38 01 	sts	0x0138, r24	; 0x800138 <start_stop_button>
			
			if(start_stop_button && current_mode == WAITING){
 564:	89 2b       	or	r24, r25
 566:	51 f0       	breq	.+20     	; 0x57c <washing_comtrol_main+0x46>
 568:	80 91 36 01 	lds	r24, 0x0136	; 0x800136 <current_mode>
 56c:	90 91 37 01 	lds	r25, 0x0137	; 0x800137 <current_mode+0x1>
 570:	89 2b       	or	r24, r25
 572:	21 f4       	brne	.+8      	; 0x57c <washing_comtrol_main+0x46>
				mode_change(WASHING);
 574:	81 e0       	ldi	r24, 0x01	; 1
 576:	90 e0       	ldi	r25, 0x00	; 0
 578:	9b df       	rcall	.-202    	; 0x4b0 <mode_change>
 57a:	7f c0       	rjmp	.+254    	; 0x67a <washing_comtrol_main+0x144>
			}else{
				mode_change(WAITING);
 57c:	80 e0       	ldi	r24, 0x00	; 0
 57e:	90 e0       	ldi	r25, 0x00	; 0
 580:	97 df       	rcall	.-210    	; 0x4b0 <mode_change>
				start_stop_button = 0;
 582:	10 92 39 01 	sts	0x0139, r1	; 0x800139 <start_stop_button+0x1>
 586:	10 92 38 01 	sts	0x0138, r1	; 0x800138 <start_stop_button>
				set_mode = WAITING;
 58a:	10 92 35 01 	sts	0x0135, r1	; 0x800135 <set_mode+0x1>
 58e:	10 92 34 01 	sts	0x0134, r1	; 0x800134 <set_mode>
 592:	73 c0       	rjmp	.+230    	; 0x67a <washing_comtrol_main+0x144>
			}
			
		} else if(start_stop_button == 0 && get_button(BUTTON1, BUTTON1PIN)){ // 모드변경버튼
 594:	80 91 38 01 	lds	r24, 0x0138	; 0x800138 <start_stop_button>
 598:	90 91 39 01 	lds	r25, 0x0139	; 0x800139 <start_stop_button+0x1>
 59c:	89 2b       	or	r24, r25
 59e:	71 f5       	brne	.+92     	; 0x5fc <washing_comtrol_main+0xc6>
 5a0:	64 e0       	ldi	r22, 0x04	; 4
 5a2:	70 e0       	ldi	r23, 0x00	; 0
 5a4:	81 e0       	ldi	r24, 0x01	; 1
 5a6:	90 e0       	ldi	r25, 0x00	; 0
 5a8:	93 dd       	rcall	.-1242   	; 0xd0 <get_button>
 5aa:	89 2b       	or	r24, r25
 5ac:	39 f1       	breq	.+78     	; 0x5fc <washing_comtrol_main+0xc6>
			set_mode++;	
 5ae:	80 91 34 01 	lds	r24, 0x0134	; 0x800134 <set_mode>
 5b2:	90 91 35 01 	lds	r25, 0x0135	; 0x800135 <set_mode+0x1>
 5b6:	01 96       	adiw	r24, 0x01	; 1
 5b8:	90 93 35 01 	sts	0x0135, r25	; 0x800135 <set_mode+0x1>
 5bc:	80 93 34 01 	sts	0x0134, r24	; 0x800134 <set_mode>
			if(set_mode > DRY) set_mode = WASHING;
 5c0:	04 97       	sbiw	r24, 0x04	; 4
 5c2:	34 f0       	brlt	.+12     	; 0x5d0 <washing_comtrol_main+0x9a>
 5c4:	81 e0       	ldi	r24, 0x01	; 1
 5c6:	90 e0       	ldi	r25, 0x00	; 0
 5c8:	90 93 35 01 	sts	0x0135, r25	; 0x800135 <set_mode+0x1>
 5cc:	80 93 34 01 	sts	0x0134, r24	; 0x800134 <set_mode>
			
			if(set_mode == WASHING) PORTA = 0x01;
 5d0:	80 91 34 01 	lds	r24, 0x0134	; 0x800134 <set_mode>
 5d4:	90 91 35 01 	lds	r25, 0x0135	; 0x800135 <set_mode+0x1>
 5d8:	81 30       	cpi	r24, 0x01	; 1
 5da:	91 05       	cpc	r25, r1
 5dc:	19 f4       	brne	.+6      	; 0x5e4 <washing_comtrol_main+0xae>
 5de:	81 e0       	ldi	r24, 0x01	; 1
 5e0:	8b bb       	out	0x1b, r24	; 27
 5e2:	4b c0       	rjmp	.+150    	; 0x67a <washing_comtrol_main+0x144>
			else if(set_mode == RINSE) PORTA = 0x03;
 5e4:	82 30       	cpi	r24, 0x02	; 2
 5e6:	91 05       	cpc	r25, r1
 5e8:	19 f4       	brne	.+6      	; 0x5f0 <washing_comtrol_main+0xba>
 5ea:	83 e0       	ldi	r24, 0x03	; 3
 5ec:	8b bb       	out	0x1b, r24	; 27
 5ee:	45 c0       	rjmp	.+138    	; 0x67a <washing_comtrol_main+0x144>
			else if(set_mode == DRY) PORTA = 0x07;
 5f0:	03 97       	sbiw	r24, 0x03	; 3
 5f2:	09 f0       	breq	.+2      	; 0x5f6 <washing_comtrol_main+0xc0>
 5f4:	42 c0       	rjmp	.+132    	; 0x67a <washing_comtrol_main+0x144>
 5f6:	87 e0       	ldi	r24, 0x07	; 7
 5f8:	8b bb       	out	0x1b, r24	; 27
 5fa:	3f c0       	rjmp	.+126    	; 0x67a <washing_comtrol_main+0x144>
			
		} else if(start_stop_button == 0 && get_button(BUTTON2, BUTTON2PIN)){ // 시간추가버튼
 5fc:	80 91 38 01 	lds	r24, 0x0138	; 0x800138 <start_stop_button>
 600:	90 91 39 01 	lds	r25, 0x0139	; 0x800139 <start_stop_button+0x1>
 604:	89 2b       	or	r24, r25
 606:	a9 f4       	brne	.+42     	; 0x632 <washing_comtrol_main+0xfc>
 608:	65 e0       	ldi	r22, 0x05	; 5
 60a:	70 e0       	ldi	r23, 0x00	; 0
 60c:	82 e0       	ldi	r24, 0x02	; 2
 60e:	90 e0       	ldi	r25, 0x00	; 0
 610:	5f dd       	rcall	.-1346   	; 0xd0 <get_button>
 612:	89 2b       	or	r24, r25
 614:	71 f0       	breq	.+28     	; 0x632 <washing_comtrol_main+0xfc>
			time_store[set_mode] += 60;//1분씩 추가
 616:	e0 91 34 01 	lds	r30, 0x0134	; 0x800134 <set_mode>
 61a:	f0 91 35 01 	lds	r31, 0x0135	; 0x800135 <set_mode+0x1>
 61e:	ee 0f       	add	r30, r30
 620:	ff 1f       	adc	r31, r31
 622:	e4 5d       	subi	r30, 0xD4	; 212
 624:	fe 4f       	sbci	r31, 0xFE	; 254
 626:	80 81       	ld	r24, Z
 628:	91 81       	ldd	r25, Z+1	; 0x01
 62a:	cc 96       	adiw	r24, 0x3c	; 60
 62c:	91 83       	std	Z+1, r25	; 0x01
 62e:	80 83       	st	Z, r24
			
		} else if(get_button(BUTTON3, BUTTON3PIN)){ // 정방향 역방향 버튼
 630:	24 c0       	rjmp	.+72     	; 0x67a <washing_comtrol_main+0x144>
 632:	66 e0       	ldi	r22, 0x06	; 6
 634:	70 e0       	ldi	r23, 0x00	; 0
 636:	83 e0       	ldi	r24, 0x03	; 3
 638:	90 e0       	ldi	r25, 0x00	; 0
 63a:	4a dd       	rcall	.-1388   	; 0xd0 <get_button>
 63c:	89 2b       	or	r24, r25
 63e:	e9 f0       	breq	.+58     	; 0x67a <washing_comtrol_main+0x144>
			if(start_stop_button){
 640:	80 91 38 01 	lds	r24, 0x0138	; 0x800138 <start_stop_button>
 644:	90 91 39 01 	lds	r25, 0x0139	; 0x800139 <start_stop_button+0x1>
 648:	89 2b       	or	r24, r25
 64a:	b9 f0       	breq	.+46     	; 0x67a <washing_comtrol_main+0x144>
				forward = !forward;
 64c:	81 e0       	ldi	r24, 0x01	; 1
 64e:	20 97       	sbiw	r28, 0x00	; 0
 650:	09 f0       	breq	.+2      	; 0x654 <washing_comtrol_main+0x11e>
 652:	80 e0       	ldi	r24, 0x00	; 0
 654:	90 e0       	ldi	r25, 0x00	; 0
				PORTF &= ~(1 << 6 | 1 << 7);
 656:	e2 e6       	ldi	r30, 0x62	; 98
 658:	f0 e0       	ldi	r31, 0x00	; 0
 65a:	20 81       	ld	r18, Z
 65c:	2f 73       	andi	r18, 0x3F	; 63
 65e:	20 83       	st	Z, r18
				if(forward) PORTF |= 1 << 6; // 정방향
 660:	cd 2b       	or	r28, r29
 662:	29 f4       	brne	.+10     	; 0x66e <washing_comtrol_main+0x138>
 664:	20 81       	ld	r18, Z
 666:	20 64       	ori	r18, 0x40	; 64
 668:	20 83       	st	Z, r18
		} else if(start_stop_button == 0 && get_button(BUTTON2, BUTTON2PIN)){ // 시간추가버튼
			time_store[set_mode] += 60;//1분씩 추가
			
		} else if(get_button(BUTTON3, BUTTON3PIN)){ // 정방향 역방향 버튼
			if(start_stop_button){
				forward = !forward;
 66a:	ec 01       	movw	r28, r24
 66c:	06 c0       	rjmp	.+12     	; 0x67a <washing_comtrol_main+0x144>
				PORTF &= ~(1 << 6 | 1 << 7);
				if(forward) PORTF |= 1 << 6; // 정방향
				else PORTF |= 1 << 7; // 역방향	
 66e:	e2 e6       	ldi	r30, 0x62	; 98
 670:	f0 e0       	ldi	r31, 0x00	; 0
 672:	20 81       	ld	r18, Z
 674:	20 68       	ori	r18, 0x80	; 128
 676:	20 83       	st	Z, r18
		} else if(start_stop_button == 0 && get_button(BUTTON2, BUTTON2PIN)){ // 시간추가버튼
			time_store[set_mode] += 60;//1분씩 추가
			
		} else if(get_button(BUTTON3, BUTTON3PIN)){ // 정방향 역방향 버튼
			if(start_stop_button){
				forward = !forward;
 678:	ec 01       	movw	r28, r24
				else PORTF |= 1 << 7; // 역방향	
			}
		}
	
		
		if(start_stop_button && current_mode != WAITING) { // FND화면
 67a:	80 91 38 01 	lds	r24, 0x0138	; 0x800138 <start_stop_button>
 67e:	90 91 39 01 	lds	r25, 0x0139	; 0x800139 <start_stop_button+0x1>
 682:	89 2b       	or	r24, r25
 684:	41 f0       	breq	.+16     	; 0x696 <washing_comtrol_main+0x160>
 686:	80 91 36 01 	lds	r24, 0x0136	; 0x800136 <current_mode>
 68a:	90 91 37 01 	lds	r25, 0x0137	; 0x800137 <current_mode+0x1>
 68e:	89 2b       	or	r24, r25
			fnd_washing_time_display(); 
 690:	11 f0       	breq	.+4      	; 0x696 <washing_comtrol_main+0x160>
 692:	b0 dd       	rcall	.-1184   	; 0x1f4 <fnd_washing_time_display>
 694:	0b c0       	rjmp	.+22     	; 0x6ac <washing_comtrol_main+0x176>
		} else {
			fnd_washing_time_set_display(time_store[set_mode]); 
 696:	e0 91 34 01 	lds	r30, 0x0134	; 0x800134 <set_mode>
 69a:	f0 91 35 01 	lds	r31, 0x0135	; 0x800135 <set_mode+0x1>
 69e:	ee 0f       	add	r30, r30
 6a0:	ff 1f       	adc	r31, r31
 6a2:	e4 5d       	subi	r30, 0xD4	; 212
 6a4:	fe 4f       	sbci	r31, 0xFE	; 254
 6a6:	80 81       	ld	r24, Z
 6a8:	91 81       	ldd	r25, Z+1	; 0x01
 6aa:	57 dd       	rcall	.-1362   	; 0x15a <fnd_washing_time_set_display>
		}
			
			
		if (start_stop_button && left_time == 0){ // 시간이끝났을때 다음모드로 이동
 6ac:	80 91 38 01 	lds	r24, 0x0138	; 0x800138 <start_stop_button>
 6b0:	90 91 39 01 	lds	r25, 0x0139	; 0x800139 <start_stop_button+0x1>
 6b4:	89 2b       	or	r24, r25
 6b6:	09 f4       	brne	.+2      	; 0x6ba <washing_comtrol_main+0x184>
 6b8:	40 cf       	rjmp	.-384    	; 0x53a <washing_comtrol_main+0x4>
 6ba:	80 91 24 01 	lds	r24, 0x0124	; 0x800124 <left_time>
 6be:	90 91 25 01 	lds	r25, 0x0125	; 0x800125 <left_time+0x1>
 6c2:	a0 91 26 01 	lds	r26, 0x0126	; 0x800126 <left_time+0x2>
 6c6:	b0 91 27 01 	lds	r27, 0x0127	; 0x800127 <left_time+0x3>
 6ca:	89 2b       	or	r24, r25
 6cc:	8a 2b       	or	r24, r26
 6ce:	8b 2b       	or	r24, r27
 6d0:	09 f0       	breq	.+2      	; 0x6d4 <washing_comtrol_main+0x19e>
 6d2:	33 cf       	rjmp	.-410    	; 0x53a <washing_comtrol_main+0x4>
			if(current_mode == DRY){
 6d4:	80 91 36 01 	lds	r24, 0x0136	; 0x800136 <current_mode>
 6d8:	90 91 37 01 	lds	r25, 0x0137	; 0x800137 <current_mode+0x1>
 6dc:	83 30       	cpi	r24, 0x03	; 3
 6de:	91 05       	cpc	r25, r1
				mode_change(WAITING);
 6e0:	61 f4       	brne	.+24     	; 0x6fa <washing_comtrol_main+0x1c4>
 6e2:	80 e0       	ldi	r24, 0x00	; 0
 6e4:	90 e0       	ldi	r25, 0x00	; 0
 6e6:	e4 de       	rcall	.-568    	; 0x4b0 <mode_change>
				start_stop_button = 0;
 6e8:	10 92 39 01 	sts	0x0139, r1	; 0x800139 <start_stop_button+0x1>
 6ec:	10 92 38 01 	sts	0x0138, r1	; 0x800138 <start_stop_button>
				set_mode = WAITING;
 6f0:	10 92 35 01 	sts	0x0135, r1	; 0x800135 <set_mode+0x1>
 6f4:	10 92 34 01 	sts	0x0134, r1	; 0x800134 <set_mode>
			}
			else mode_change(current_mode + 1);
 6f8:	20 cf       	rjmp	.-448    	; 0x53a <washing_comtrol_main+0x4>
 6fa:	01 96       	adiw	r24, 0x01	; 1
 6fc:	d9 de       	rcall	.-590    	; 0x4b0 <mode_change>
 6fe:	1d cf       	rjmp	.-454    	; 0x53a <washing_comtrol_main+0x4>

00000700 <__divmodhi4>:
 700:	97 fb       	bst	r25, 7
 702:	07 2e       	mov	r0, r23
 704:	16 f4       	brtc	.+4      	; 0x70a <__divmodhi4+0xa>
 706:	00 94       	com	r0
 708:	06 d0       	rcall	.+12     	; 0x716 <__divmodhi4_neg1>
 70a:	77 fd       	sbrc	r23, 7
 70c:	08 d0       	rcall	.+16     	; 0x71e <__divmodhi4_neg2>
 70e:	2d d0       	rcall	.+90     	; 0x76a <__udivmodhi4>
 710:	07 fc       	sbrc	r0, 7
 712:	05 d0       	rcall	.+10     	; 0x71e <__divmodhi4_neg2>
 714:	3e f4       	brtc	.+14     	; 0x724 <__divmodhi4_exit>

00000716 <__divmodhi4_neg1>:
 716:	90 95       	com	r25
 718:	81 95       	neg	r24
 71a:	9f 4f       	sbci	r25, 0xFF	; 255
 71c:	08 95       	ret

0000071e <__divmodhi4_neg2>:
 71e:	70 95       	com	r23
 720:	61 95       	neg	r22
 722:	7f 4f       	sbci	r23, 0xFF	; 255

00000724 <__divmodhi4_exit>:
 724:	08 95       	ret

00000726 <__udivmodsi4>:
 726:	a1 e2       	ldi	r26, 0x21	; 33
 728:	1a 2e       	mov	r1, r26
 72a:	aa 1b       	sub	r26, r26
 72c:	bb 1b       	sub	r27, r27
 72e:	fd 01       	movw	r30, r26
 730:	0d c0       	rjmp	.+26     	; 0x74c <__udivmodsi4_ep>

00000732 <__udivmodsi4_loop>:
 732:	aa 1f       	adc	r26, r26
 734:	bb 1f       	adc	r27, r27
 736:	ee 1f       	adc	r30, r30
 738:	ff 1f       	adc	r31, r31
 73a:	a2 17       	cp	r26, r18
 73c:	b3 07       	cpc	r27, r19
 73e:	e4 07       	cpc	r30, r20
 740:	f5 07       	cpc	r31, r21
 742:	20 f0       	brcs	.+8      	; 0x74c <__udivmodsi4_ep>
 744:	a2 1b       	sub	r26, r18
 746:	b3 0b       	sbc	r27, r19
 748:	e4 0b       	sbc	r30, r20
 74a:	f5 0b       	sbc	r31, r21

0000074c <__udivmodsi4_ep>:
 74c:	66 1f       	adc	r22, r22
 74e:	77 1f       	adc	r23, r23
 750:	88 1f       	adc	r24, r24
 752:	99 1f       	adc	r25, r25
 754:	1a 94       	dec	r1
 756:	69 f7       	brne	.-38     	; 0x732 <__udivmodsi4_loop>
 758:	60 95       	com	r22
 75a:	70 95       	com	r23
 75c:	80 95       	com	r24
 75e:	90 95       	com	r25
 760:	9b 01       	movw	r18, r22
 762:	ac 01       	movw	r20, r24
 764:	bd 01       	movw	r22, r26
 766:	cf 01       	movw	r24, r30
 768:	08 95       	ret

0000076a <__udivmodhi4>:
 76a:	aa 1b       	sub	r26, r26
 76c:	bb 1b       	sub	r27, r27
 76e:	51 e1       	ldi	r21, 0x11	; 17
 770:	07 c0       	rjmp	.+14     	; 0x780 <__udivmodhi4_ep>

00000772 <__udivmodhi4_loop>:
 772:	aa 1f       	adc	r26, r26
 774:	bb 1f       	adc	r27, r27
 776:	a6 17       	cp	r26, r22
 778:	b7 07       	cpc	r27, r23
 77a:	10 f0       	brcs	.+4      	; 0x780 <__udivmodhi4_ep>
 77c:	a6 1b       	sub	r26, r22
 77e:	b7 0b       	sbc	r27, r23

00000780 <__udivmodhi4_ep>:
 780:	88 1f       	adc	r24, r24
 782:	99 1f       	adc	r25, r25
 784:	5a 95       	dec	r21
 786:	a9 f7       	brne	.-22     	; 0x772 <__udivmodhi4_loop>
 788:	80 95       	com	r24
 78a:	90 95       	com	r25
 78c:	bc 01       	movw	r22, r24
 78e:	cd 01       	movw	r24, r26
 790:	08 95       	ret

00000792 <_exit>:
 792:	f8 94       	cli

00000794 <__stop_program>:
 794:	ff cf       	rjmp	.-2      	; 0x794 <__stop_program>
